target datalayout = "e-m:e-p270:32:32-p271:32:32-p272:64:64-i64:64-i128:128-f80:128-n8:16:32:64-S128"
target triple = "x86_64-pc-linux-gnu"

%struct.AVFilterContext = type { ptr, ptr, ptr, ptr, ptr, i32, ptr, ptr, i32, ptr, ptr, i32, i32, ptr, ptr, ptr, ptr, i32, ptr, i32, i32 }
%struct.AVFilterLink = type { ptr, ptr, ptr, ptr, i32, i32, i32, i32, %struct.AVRational, i32, i32, i32, %struct.AVChannelLayout, %struct.AVRational, ptr, i32, %struct.AVFilterFormatsConfig, %struct.AVFilterFormatsConfig }
%struct.AVChannelLayout = type { i32, i32, %union.anon.1, ptr }
%union.anon.1 = type { i64 }
%struct.AVRational = type { i32, i32 }
%struct.AVFilterFormatsConfig = type { ptr, ptr, ptr, ptr, ptr }
%struct.AVFilterFormats = type { i32, ptr, i32, ptr }
%struct.AVPixFmtDescriptor = type { ptr, i8, i8, i8, i64, [4 x %struct.AVComponentDescriptor], ptr }
%struct.AVComponentDescriptor = type { i32, i32, i32, i32, i32 }

@levels_out_rgb8_pix_fmts = internal constant [3 x i32] [i32 111, i32 71, i32 -1], align 4
@levels_out_rgb9_pix_fmts = internal constant [2 x i32] [i32 73, i32 -1], align 4
@levels_out_rgb10_pix_fmts = internal constant [3 x i32] [i32 75, i32 163, i32 -1], align 4
@levels_out_rgb12_pix_fmts = internal constant [3 x i32] [i32 135, i32 161, i32 -1], align 4
@levels_out_yuv8_pix_fmts = internal constant [3 x i32] [i32 79, i32 5, i32 -1], align 4
@levels_out_yuv9_pix_fmts = internal constant [3 x i32] [i32 85, i32 66, i32 -1], align 4
@levels_out_yuv10_pix_fmts = internal constant [3 x i32] [i32 91, i32 68, i32 -1], align 4
@levels_out_yuv12_pix_fmts = internal constant [3 x i32] [i32 187, i32 131, i32 -1], align 4

; Function Attrs: nounwind uwtable
define internal i32 @query_formats(ptr noundef %0) #0 {
  %2 = alloca i32, align 4
  %3 = alloca ptr, align 8
  %4 = alloca ptr, align 8
  %5 = alloca ptr, align 8
  %6 = alloca ptr, align 8
  %7 = alloca i32, align 4
  %8 = alloca i32, align 4
  %9 = alloca i32, align 4
  %10 = alloca i32, align 4
  %11 = alloca i32, align 4
  store ptr %0, ptr %3, align 8, !tbaa !4
  call void @llvm.lifetime.start.p0(i64 8, ptr %4) #9
  call void @llvm.lifetime.start.p0(i64 8, ptr %5) #9
  call void @llvm.lifetime.start.p0(i64 8, ptr %6) #9
  call void @llvm.lifetime.start.p0(i64 4, ptr %7) #9
  call void @llvm.lifetime.start.p0(i64 4, ptr %8) #9
  call void @llvm.lifetime.start.p0(i64 4, ptr %9) #9
  call void @llvm.lifetime.start.p0(i64 4, ptr %10) #9
  %12 = load ptr, ptr %3, align 8, !tbaa !4
  %13 = getelementptr inbounds nuw %struct.AVFilterContext, ptr %12, i32 0, i32 4
  %14 = load ptr, ptr %13, align 8, !tbaa !9
  %15 = getelementptr inbounds ptr, ptr %14, i64 0
  %16 = load ptr, ptr %15, align 8, !tbaa !22
  %17 = getelementptr inbounds nuw %struct.AVFilterLink, ptr %16, i32 0, i32 16
  %18 = getelementptr inbounds nuw %struct.AVFilterFormatsConfig, ptr %17, i32 0, i32 0
  %19 = load ptr, ptr %18, align 8, !tbaa !24
  %20 = icmp ne ptr %19, null
  br i1 %20, label %21, label %33

21:                                               ; preds = %1
  %22 = load ptr, ptr %3, align 8, !tbaa !4
  %23 = getelementptr inbounds nuw %struct.AVFilterContext, ptr %22, i32 0, i32 4
  %24 = load ptr, ptr %23, align 8, !tbaa !9
  %25 = getelementptr inbounds ptr, ptr %24, i64 0
  %26 = load ptr, ptr %25, align 8, !tbaa !22
  %27 = getelementptr inbounds nuw %struct.AVFilterLink, ptr %26, i32 0, i32 16
  %28 = getelementptr inbounds nuw %struct.AVFilterFormatsConfig, ptr %27, i32 0, i32 0
  %29 = load ptr, ptr %28, align 8, !tbaa !24
  %30 = getelementptr inbounds nuw %struct.AVFilterFormats, ptr %29, i32 0, i32 0
  %31 = load i32, ptr %30, align 8, !tbaa !32
  %32 = icmp ne i32 %31, 0
  br i1 %32, label %34, label %33

33:                                               ; preds = %21, %1
  store i32 -11, ptr %2, align 4
  store i32 1, ptr %11, align 4
  br label %185

34:                                               ; preds = %21
  %35 = load ptr, ptr %3, align 8, !tbaa !4
  %36 = getelementptr inbounds nuw %struct.AVFilterContext, ptr %35, i32 0, i32 4
  %37 = load ptr, ptr %36, align 8, !tbaa !9
  %38 = getelementptr inbounds ptr, ptr %37, i64 0
  %39 = load ptr, ptr %38, align 8, !tbaa !22
  %40 = getelementptr inbounds nuw %struct.AVFilterLink, ptr %39, i32 0, i32 17
  %41 = getelementptr inbounds nuw %struct.AVFilterFormatsConfig, ptr %40, i32 0, i32 0
  %42 = load ptr, ptr %41, align 8, !tbaa !37
  %43 = icmp ne ptr %42, null
  br i1 %43, label %58, label %44

44:                                               ; preds = %34
  %45 = call ptr @ff_make_format_list(ptr noundef @levels_in_pix_fmts)
  %46 = load ptr, ptr %3, align 8, !tbaa !4
  %47 = getelementptr inbounds nuw %struct.AVFilterContext, ptr %46, i32 0, i32 4
  %48 = load ptr, ptr %47, align 8, !tbaa !9
  %49 = getelementptr inbounds ptr, ptr %48, i64 0
  %50 = load ptr, ptr %49, align 8, !tbaa !22
  %51 = getelementptr inbounds nuw %struct.AVFilterLink, ptr %50, i32 0, i32 17
  %52 = getelementptr inbounds nuw %struct.AVFilterFormatsConfig, ptr %51, i32 0, i32 0
  %53 = call i32 @ff_formats_ref(ptr noundef %45, ptr noundef %52)
  store i32 %53, ptr %10, align 4, !tbaa !38
  %54 = icmp slt i32 %53, 0
  br i1 %54, label %55, label %57

55:                                               ; preds = %44
  %56 = load i32, ptr %10, align 4, !tbaa !38
  store i32 %56, ptr %2, align 4
  store i32 1, ptr %11, align 4
  br label %185

57:                                               ; preds = %44
  br label %58

58:                                               ; preds = %57, %34
  %59 = load ptr, ptr %3, align 8, !tbaa !4
  %60 = getelementptr inbounds nuw %struct.AVFilterContext, ptr %59, i32 0, i32 4
  %61 = load ptr, ptr %60, align 8, !tbaa !9
  %62 = getelementptr inbounds ptr, ptr %61, i64 0
  %63 = load ptr, ptr %62, align 8, !tbaa !22
  %64 = getelementptr inbounds nuw %struct.AVFilterLink, ptr %63, i32 0, i32 16
  %65 = getelementptr inbounds nuw %struct.AVFilterFormatsConfig, ptr %64, i32 0, i32 0
  %66 = load ptr, ptr %65, align 8, !tbaa !24
  store ptr %66, ptr %4, align 8, !tbaa !39
  %67 = load ptr, ptr %4, align 8, !tbaa !39
  %68 = getelementptr inbounds nuw %struct.AVFilterFormats, ptr %67, i32 0, i32 1
  %69 = load ptr, ptr %68, align 8, !tbaa !40
  %70 = getelementptr inbounds i32, ptr %69, i64 0
  %71 = load i32, ptr %70, align 4, !tbaa !38
  %72 = call ptr @av_pix_fmt_desc_get(i32 noundef %71)
  store ptr %72, ptr %5, align 8, !tbaa !41
  %73 = load ptr, ptr %5, align 8, !tbaa !41
  %74 = getelementptr inbounds nuw %struct.AVPixFmtDescriptor, ptr %73, i32 0, i32 4
  %75 = load i64, ptr %74, align 8, !tbaa !43
  %76 = and i64 %75, 32
  %77 = trunc i64 %76 to i32
  store i32 %77, ptr %7, align 4, !tbaa !38
  %78 = load ptr, ptr %5, align 8, !tbaa !41
  %79 = getelementptr inbounds nuw %struct.AVPixFmtDescriptor, ptr %78, i32 0, i32 5
  %80 = getelementptr inbounds [4 x %struct.AVComponentDescriptor], ptr %79, i64 0, i64 0
  %81 = getelementptr inbounds nuw %struct.AVComponentDescriptor, ptr %80, i32 0, i32 4
  %82 = load i32, ptr %81, align 8, !tbaa !46
  store i32 %82, ptr %9, align 4, !tbaa !38
  store i32 1, ptr %8, align 4, !tbaa !38
  br label %83

83:                                               ; preds = %115, %58
  %84 = load i32, ptr %8, align 4, !tbaa !38
  %85 = load ptr, ptr %4, align 8, !tbaa !39
  %86 = getelementptr inbounds nuw %struct.AVFilterFormats, ptr %85, i32 0, i32 0
  %87 = load i32, ptr %86, align 8, !tbaa !32
  %88 = icmp ult i32 %84, %87
  br i1 %88, label %89, label %118

89:                                               ; preds = %83
  %90 = load ptr, ptr %4, align 8, !tbaa !39
  %91 = getelementptr inbounds nuw %struct.AVFilterFormats, ptr %90, i32 0, i32 1
  %92 = load ptr, ptr %91, align 8, !tbaa !40
  %93 = load i32, ptr %8, align 4, !tbaa !38
  %94 = sext i32 %93 to i64
  %95 = getelementptr inbounds i32, ptr %92, i64 %94
  %96 = load i32, ptr %95, align 4, !tbaa !38
  %97 = call ptr @av_pix_fmt_desc_get(i32 noundef %96)
  store ptr %97, ptr %5, align 8, !tbaa !41
  %98 = load i32, ptr %7, align 4, !tbaa !38
  %99 = sext i32 %98 to i64
  %100 = load ptr, ptr %5, align 8, !tbaa !41
  %101 = getelementptr inbounds nuw %struct.AVPixFmtDescriptor, ptr %100, i32 0, i32 4
  %102 = load i64, ptr %101, align 8, !tbaa !43
  %103 = and i64 %102, 32
  %104 = icmp ne i64 %99, %103
  br i1 %104, label %113, label %105

105:                                              ; preds = %89
  %106 = load i32, ptr %9, align 4, !tbaa !38
  %107 = load ptr, ptr %5, align 8, !tbaa !41
  %108 = getelementptr inbounds nuw %struct.AVPixFmtDescriptor, ptr %107, i32 0, i32 5
  %109 = getelementptr inbounds [4 x %struct.AVComponentDescriptor], ptr %108, i64 0, i64 0
  %110 = getelementptr inbounds nuw %struct.AVComponentDescriptor, ptr %109, i32 0, i32 4
  %111 = load i32, ptr %110, align 8, !tbaa !46
  %112 = icmp ne i32 %106, %111
  br i1 %112, label %113, label %114

113:                                              ; preds = %105, %89
  store i32 -11, ptr %2, align 4
  store i32 1, ptr %11, align 4
  br label %185

114:                                              ; preds = %105
  br label %115

115:                                              ; preds = %114
  %116 = load i32, ptr %8, align 4, !tbaa !38
  %117 = add nsw i32 %116, 1
  store i32 %117, ptr %8, align 4, !tbaa !38
  br label %83, !llvm.loop !48

118:                                              ; preds = %83
  %119 = load i32, ptr %7, align 4, !tbaa !38
  %120 = icmp ne i32 %119, 0
  br i1 %120, label %121, label %125

121:                                              ; preds = %118
  %122 = load i32, ptr %9, align 4, !tbaa !38
  %123 = icmp eq i32 %122, 8
  br i1 %123, label %124, label %125

124:                                              ; preds = %121
  store ptr @levels_out_rgb8_pix_fmts, ptr %6, align 8, !tbaa !50
  br label %170

125:                                              ; preds = %121, %118
  %126 = load i32, ptr %7, align 4, !tbaa !38
  %127 = icmp ne i32 %126, 0
  br i1 %127, label %128, label %132

128:                                              ; preds = %125
  %129 = load i32, ptr %9, align 4, !tbaa !38
  %130 = icmp eq i32 %129, 9
  br i1 %130, label %131, label %132

131:                                              ; preds = %128
  store ptr @levels_out_rgb9_pix_fmts, ptr %6, align 8, !tbaa !50
  br label %169

132:                                              ; preds = %128, %125
  %133 = load i32, ptr %7, align 4, !tbaa !38
  %134 = icmp ne i32 %133, 0
  br i1 %134, label %135, label %139

135:                                              ; preds = %132
  %136 = load i32, ptr %9, align 4, !tbaa !38
  %137 = icmp eq i32 %136, 10
  br i1 %137, label %138, label %139

138:                                              ; preds = %135
  store ptr @levels_out_rgb10_pix_fmts, ptr %6, align 8, !tbaa !50
  br label %168

139:                                              ; preds = %135, %132
  %140 = load i32, ptr %7, align 4, !tbaa !38
  %141 = icmp ne i32 %140, 0
  br i1 %141, label %142, label %146

142:                                              ; preds = %139
  %143 = load i32, ptr %9, align 4, !tbaa !38
  %144 = icmp eq i32 %143, 12
  br i1 %144, label %145, label %146

145:                                              ; preds = %142
  store ptr @levels_out_rgb12_pix_fmts, ptr %6, align 8, !tbaa !50
  br label %167

146:                                              ; preds = %142, %139
  %147 = load i32, ptr %9, align 4, !tbaa !38
  %148 = icmp eq i32 %147, 8
  br i1 %148, label %149, label %150

149:                                              ; preds = %146
  store ptr @levels_out_yuv8_pix_fmts, ptr %6, align 8, !tbaa !50
  br label %166

150:                                              ; preds = %146
  %151 = load i32, ptr %9, align 4, !tbaa !38
  %152 = icmp eq i32 %151, 9
  br i1 %152, label %153, label %154

153:                                              ; preds = %150
  store ptr @levels_out_yuv9_pix_fmts, ptr %6, align 8, !tbaa !50
  br label %165

154:                                              ; preds = %150
  %155 = load i32, ptr %9, align 4, !tbaa !38
  %156 = icmp eq i32 %155, 10
  br i1 %156, label %157, label %158

157:                                              ; preds = %154
  store ptr @levels_out_yuv10_pix_fmts, ptr %6, align 8, !tbaa !50
  br label %164

158:                                              ; preds = %154
  %159 = load i32, ptr %9, align 4, !tbaa !38
  %160 = icmp eq i32 %159, 12
  br i1 %160, label %161, label %162

161:                                              ; preds = %158
  store ptr @levels_out_yuv12_pix_fmts, ptr %6, align 8, !tbaa !50
  br label %163

162:                                              ; preds = %158
  store i32 -11, ptr %2, align 4
  store i32 1, ptr %11, align 4
  br label %185

163:                                              ; preds = %161
  br label %164

164:                                              ; preds = %163, %157
  br label %165

165:                                              ; preds = %164, %153
  br label %166

166:                                              ; preds = %165, %149
  br label %167

167:                                              ; preds = %166, %145
  br label %168

168:                                              ; preds = %167, %138
  br label %169

169:                                              ; preds = %168, %131
  br label %170

170:                                              ; preds = %169, %124
  %171 = load ptr, ptr %6, align 8, !tbaa !50
  %172 = call ptr @ff_make_format_list(ptr noundef %171)
  %173 = load ptr, ptr %3, align 8, !tbaa !4
  %174 = getelementptr inbounds nuw %struct.AVFilterContext, ptr %173, i32 0, i32 7
  %175 = load ptr, ptr %174, align 8, !tbaa !51
  %176 = getelementptr inbounds ptr, ptr %175, i64 0
  %177 = load ptr, ptr %176, align 8, !tbaa !22
  %178 = getelementptr inbounds nuw %struct.AVFilterLink, ptr %177, i32 0, i32 16
  %179 = getelementptr inbounds nuw %struct.AVFilterFormatsConfig, ptr %178, i32 0, i32 0
  %180 = call i32 @ff_formats_ref(ptr noundef %172, ptr noundef %179)
  store i32 %180, ptr %10, align 4, !tbaa !38
  %181 = icmp slt i32 %180, 0
  br i1 %181, label %182, label %184

182:                                              ; preds = %170
  %183 = load i32, ptr %10, align 4, !tbaa !38
  store i32 %183, ptr %2, align 4
  store i32 1, ptr %11, align 4
  br label %185

184:                                              ; preds = %170
  store i32 0, ptr %2, align 4
  store i32 1, ptr %11, align 4
  br label %185

185:                                              ; preds = %184, %182, %162, %113, %55, %33
  call void @llvm.lifetime.end.p0(i64 4, ptr %10) #9
  call void @llvm.lifetime.end.p0(i64 4, ptr %9) #9
  call void @llvm.lifetime.end.p0(i64 4, ptr %8) #9
  call void @llvm.lifetime.end.p0(i64 4, ptr %7) #9
  call void @llvm.lifetime.end.p0(i64 8, ptr %6) #9
  call void @llvm.lifetime.end.p0(i64 8, ptr %5) #9
  call void @llvm.lifetime.end.p0(i64 8, ptr %4) #9
  %186 = load i32, ptr %2, align 4
  ret i32 %186
}