; Function Attrs: nounwind uwtable
define internal range(i32 -2147483648, 1) i32 @query_formats(ptr noundef readonly captures(none) %0) #0 {
  %2 = getelementptr inbounds nuw i8, ptr %0, i64 32
  %3 = load ptr, ptr %2, align 8, !tbaa !4
  %4 = load ptr, ptr %3, align 8, !tbaa !20
  %5 = getelementptr inbounds nuw i8, ptr %4, i64 120
  %6 = load ptr, ptr %5, align 8, !tbaa !22
  %.not = icmp eq ptr %6, null
  br i1 %.not, label %.loopexit, label %7

7:                                                ; preds = %1
  %8 = load i32, ptr %6, align 8, !tbaa !31
  %.not45 = icmp eq i32 %8, 0
  br i1 %.not45, label %.loopexit, label %9

9:                                                ; preds = %7
  %10 = getelementptr inbounds nuw i8, ptr %4, i64 160
  %11 = load ptr, ptr %10, align 8, !tbaa !36
  %.not46 = icmp eq ptr %11, null
  br i1 %.not46, label %12, label %19

12:                                               ; preds = %9
  %13 = tail call ptr @ff_make_format_list(ptr noundef nonnull @levels_in_pix_fmts) #8
  %14 = load ptr, ptr %2, align 8, !tbaa !4
  %15 = load ptr, ptr %14, align 8, !tbaa !20
  %16 = getelementptr inbounds nuw i8, ptr %15, i64 160
  %17 = tail call i32 @ff_formats_ref(ptr noundef %13, ptr noundef nonnull %16) #8
  %18 = icmp slt i32 %17, 0
  br i1 %18, label %.loopexit, label %._crit_edge54

._crit_edge54:                                    ; preds = %12
  %.pre = load ptr, ptr %2, align 8, !tbaa !4
  %.pre55 = load ptr, ptr %.pre, align 8, !tbaa !20
  %.phi.trans.insert = getelementptr inbounds nuw i8, ptr %.pre55, i64 120
  %.pre56 = load ptr, ptr %.phi.trans.insert, align 8, !tbaa !22
  br label %19

19:                                               ; preds = %._crit_edge54, %9
  %20 = phi ptr [ %.pre56, %._crit_edge54 ], [ %6, %9 ]
  %21 = getelementptr inbounds nuw i8, ptr %20, i64 8
  %22 = load ptr, ptr %21, align 8, !tbaa !37
  %23 = load i32, ptr %22, align 4, !tbaa !38
  %24 = tail call ptr @av_pix_fmt_desc_get(i32 noundef %23) #8
  %25 = getelementptr inbounds nuw i8, ptr %24, i64 16
  %26 = load i64, ptr %25, align 8, !tbaa !39
  %27 = getelementptr inbounds nuw i8, ptr %24, i64 40
  %28 = load i32, ptr %27, align 8, !tbaa !42
  %29 = load i32, ptr %20, align 8, !tbaa !31
  %30 = icmp ugt i32 %29, 1
  br i1 %30, label %.lr.ph, label %._crit_edge

31:                                               ; preds = %43
  %indvars.iv.next = add nuw nsw i64 %indvars.iv, 1
  %32 = load i32, ptr %20, align 8, !tbaa !31
  %33 = zext i32 %32 to i64
  %34 = icmp samesign ult i64 %indvars.iv.next, %33
  br i1 %34, label %.lr.ph, label %._crit_edge, !llvm.loop !44

.lr.ph:                                           ; preds = %19, %31
  %indvars.iv = phi i64 [ %indvars.iv.next, %31 ], [ 1, %19 ]
  %35 = load ptr, ptr %21, align 8, !tbaa !37
  %36 = getelementptr inbounds nuw i32, ptr %35, i64 %indvars.iv
  %37 = load i32, ptr %36, align 4, !tbaa !38
  %38 = tail call ptr @av_pix_fmt_desc_get(i32 noundef %37) #8
  %39 = getelementptr inbounds nuw i8, ptr %38, i64 16
  %40 = load i64, ptr %39, align 8, !tbaa !39
  %41 = xor i64 %40, %26
  %42 = and i64 %41, 32
  %.not47 = icmp eq i64 %42, 0
  br i1 %.not47, label %43, label %.loopexit

43:                                               ; preds = %.lr.ph
  %44 = getelementptr inbounds nuw i8, ptr %38, i64 40
  %45 = load i32, ptr %44, align 8, !tbaa !42
  %.not48 = icmp eq i32 %28, %45
  br i1 %.not48, label %31, label %.loopexit

._crit_edge:                                      ; preds = %31, %19
  %46 = and i64 %26, 32
  %47 = icmp ne i64 %46, 0
  %48 = icmp eq i32 %28, 8
  %or.cond = select i1 %47, i1 %48, i1 false
  br i1 %or.cond, label %58, label %49

49:                                               ; preds = %._crit_edge
  %50 = icmp eq i32 %28, 9
  %or.cond3 = select i1 %47, i1 %50, i1 false
  br i1 %or.cond3, label %58, label %51

51:                                               ; preds = %49
  %52 = icmp eq i32 %28, 10
  %or.cond5 = select i1 %47, i1 %52, i1 false
  br i1 %or.cond5, label %58, label %53

53:                                               ; preds = %51
  %54 = icmp eq i32 %28, 12
  %or.cond7 = select i1 %47, i1 %54, i1 false
  %55 = freeze i1 %or.cond7
  br i1 %55, label %58, label %switch.early.test

switch.early.test:                                ; preds = %53
  %56 = and i32 %28, -2
  %57 = icmp eq i32 %56, 8
  %levels_out_rgb12_pix_fmts.mux = select i1 %48, ptr @levels_out_yuv8_pix_fmts, ptr @levels_out_yuv9_pix_fmts
  %levels_out_rgb12_pix_fmts.mux.mux = select i1 %52, ptr @levels_out_yuv10_pix_fmts, ptr @levels_out_yuv12_pix_fmts
  %levels_out_rgb12_pix_fmts.mux.mux.mux = select i1 %57, ptr %levels_out_rgb12_pix_fmts.mux, ptr %levels_out_rgb12_pix_fmts.mux.mux
  switch i32 %28, label %.loopexit [
    i32 12, label %58
    i32 10, label %58
    i32 9, label %58
    i32 8, label %58
  ]

58:                                               ; preds = %switch.early.test, %switch.early.test, %switch.early.test, %switch.early.test, %53, %51, %49, %._crit_edge
  %.041 = phi ptr [ @levels_out_rgb8_pix_fmts, %._crit_edge ], [ @levels_out_rgb9_pix_fmts, %49 ], [ @levels_out_rgb10_pix_fmts, %51 ], [ %levels_out_rgb12_pix_fmts.mux.mux.mux, %switch.early.test ], [ @levels_out_rgb12_pix_fmts, %53 ], [ %levels_out_rgb12_pix_fmts.mux.mux.mux, %switch.early.test ], [ %levels_out_rgb12_pix_fmts.mux.mux.mux, %switch.early.test ], [ %levels_out_rgb12_pix_fmts.mux.mux.mux, %switch.early.test ]
  %59 = tail call ptr @ff_make_format_list(ptr noundef nonnull %.041) #8
  %60 = getelementptr inbounds nuw i8, ptr %0, i64 56
  %61 = load ptr, ptr %60, align 8, !tbaa !46
  %62 = load ptr, ptr %61, align 8, !tbaa !20
  %63 = getelementptr inbounds nuw i8, ptr %62, i64 120
  %64 = tail call i32 @ff_formats_ref(ptr noundef %59, ptr noundef nonnull %63) #8
  %. = tail call i32 @llvm.smin.i32(i32 %64, i32 0)
  br label %.loopexit

.loopexit:                                        ; preds = %.lr.ph, %43, %switch.early.test, %58, %12, %1, %7
  %.0 = phi i32 [ -11, %7 ], [ -11, %1 ], [ %17, %12 ], [ %., %58 ], [ -11, %switch.early.test ], [ -11, %43 ], [ -11, %.lr.ph ]
  ret i32 %.0
}